target datalayout = "e-m:e-p270:32:32-p271:32:32-p272:64:64-i64:64-i128:128-f80:128-n8:16:32:64-S128"
target triple = "x86_64-pc-linux-gnu"

%struct._u3v_conv_info_t = type { i64, i64, i64, i64, i64, i64, i32, ptr }
%struct._packet_info = type { ptr, ptr, i32, i32, %struct.nstime_t, %struct.nstime_t, %struct.nstime_t, i8, ptr, ptr, ptr, ptr, %struct._address, %struct._address, %struct._address, %struct._address, %struct._address, %struct._address, i32, ptr, i8, [3 x i8], %struct.anon, i32, i32, i32, i32, ptr, i8, ptr, ptr, i16, i16, i32, i32, i16, i32, i32, ptr, ptr, ptr, i8, i8, i16, i16, i16, i32, i16, i16, ptr, ptr, ptr, ptr, ptr, i32, i32 }
%struct.nstime_t = type { i64, i32 }
%struct._address = type { i32, i32, ptr, ptr }
%struct.anon = type { i8, [3 x i8] }
%struct._gencp_transaction_t = type { i32, i32, %struct.nstime_t, ptr, i64, i32 }

@ett_u3v_payload_cmd = internal global i32 0, align 4
@hf_u3v_address = internal global i32 0, align 4
@hf_u3v_custom_memory_addr = internal global i32 0, align 4
@hf_u3v_custom_memory_data = internal global i32 0, align 4
@hf_u3v_scd_writemem_cmd = internal global i32 0, align 4
@.str.630 = private unnamed_addr constant [4 x i8] c" %s\00", align 1
@.str.683 = private unnamed_addr constant [13 x i8] c"%s: %d bytes\00", align 1

; Function Attrs: null_pointer_is_valid sspstrong uwtable
define internal i32 @is_known_bootstrap_register(i64 noundef %0, ptr noundef %1) #0 {
  %3 = alloca i64, align 8
  %4 = alloca ptr, align 8
  %5 = alloca ptr, align 8
  %6 = alloca i32, align 4
  store i64 %0, ptr %3, align 8
  store ptr %1, ptr %4, align 8
  call void @llvm.lifetime.start.p0(i64 8, ptr %5) #6
  store ptr null, ptr %5, align 8
  call void @llvm.lifetime.start.p0(i64 4, ptr %6) #6
  %7 = load i64, ptr %3, align 8
  %8 = icmp ult i64 %7, 65536
  br i1 %8, label %9, label %14

9:                                                ; preds = %2
  %10 = load i64, ptr %3, align 8
  %11 = trunc i64 %10 to i32
  store i32 %11, ptr %6, align 4
  %12 = load i32, ptr %6, align 4
  %13 = call ptr @try_val_to_str(i32 noundef %12, ptr noundef @bootstrap_register_names_abrm)
  store ptr %13, ptr %5, align 8
  br label %14

14:                                               ; preds = %9, %2
  %15 = load ptr, ptr %4, align 8
  %16 = getelementptr inbounds nuw %struct._u3v_conv_info_t, ptr %15, i32 0, i32 1
  %17 = load i64, ptr %16, align 8
  %18 = icmp ne i64 %17, 0
  br i1 %18, label %19, label %34

19:                                               ; preds = %14
  %20 = load i64, ptr %3, align 8
  %21 = load ptr, ptr %4, align 8
  %22 = getelementptr inbounds nuw %struct._u3v_conv_info_t, ptr %21, i32 0, i32 1
  %23 = load i64, ptr %22, align 8
  %24 = icmp uge i64 %20, %23
  br i1 %24, label %25, label %34

25:                                               ; preds = %19
  %26 = load i64, ptr %3, align 8
  %27 = load ptr, ptr %4, align 8
  %28 = getelementptr inbounds nuw %struct._u3v_conv_info_t, ptr %27, i32 0, i32 1
  %29 = load i64, ptr %28, align 8
  %30 = sub i64 %26, %29
  %31 = trunc i64 %30 to i32
  store i32 %31, ptr %6, align 4
  %32 = load i32, ptr %6, align 4
  %33 = call ptr @try_val_to_str(i32 noundef %32, ptr noundef @bootstrap_register_names_sbrm)
  store ptr %33, ptr %5, align 8
  br label %34

34:                                               ; preds = %25, %19, %14
  %35 = load ptr, ptr %4, align 8
  %36 = getelementptr inbounds nuw %struct._u3v_conv_info_t, ptr %35, i32 0, i32 2
  %37 = load i64, ptr %36, align 8
  %38 = icmp ne i64 %37, 0
  br i1 %38, label %39, label %54

39:                                               ; preds = %34
  %40 = load i64, ptr %3, align 8
  %41 = load ptr, ptr %4, align 8
  %42 = getelementptr inbounds nuw %struct._u3v_conv_info_t, ptr %41, i32 0, i32 2
  %43 = load i64, ptr %42, align 8
  %44 = icmp uge i64 %40, %43
  br i1 %44, label %45, label %54

45:                                               ; preds = %39
  %46 = load i64, ptr %3, align 8
  %47 = load ptr, ptr %4, align 8
  %48 = getelementptr inbounds nuw %struct._u3v_conv_info_t, ptr %47, i32 0, i32 2
  %49 = load i64, ptr %48, align 8
  %50 = sub i64 %46, %49
  %51 = trunc i64 %50 to i32
  store i32 %51, ptr %6, align 4
  %52 = load i32, ptr %6, align 4
  %53 = call ptr @try_val_to_str(i32 noundef %52, ptr noundef @bootstrap_register_names_sirm)
  store ptr %53, ptr %5, align 8
  br label %54

54:                                               ; preds = %45, %39, %34
  %55 = load ptr, ptr %4, align 8
  %56 = getelementptr inbounds nuw %struct._u3v_conv_info_t, ptr %55, i32 0, i32 3
  %57 = load i64, ptr %56, align 8
  %58 = icmp ne i64 %57, 0
  br i1 %58, label %59, label %74

59:                                               ; preds = %54
  %60 = load i64, ptr %3, align 8
  %61 = load ptr, ptr %4, align 8
  %62 = getelementptr inbounds nuw %struct._u3v_conv_info_t, ptr %61, i32 0, i32 3
  %63 = load i64, ptr %62, align 8
  %64 = icmp uge i64 %60, %63
  br i1 %64, label %65, label %74

65:                                               ; preds = %59
  %66 = load i64, ptr %3, align 8
  %67 = load ptr, ptr %4, align 8
  %68 = getelementptr inbounds nuw %struct._u3v_conv_info_t, ptr %67, i32 0, i32 3
  %69 = load i64, ptr %68, align 8
  %70 = sub i64 %66, %69
  %71 = trunc i64 %70 to i32
  store i32 %71, ptr %6, align 4
  %72 = load i32, ptr %6, align 4
  %73 = call ptr @try_val_to_str(i32 noundef %72, ptr noundef @bootstrap_register_names_eirm)
  store ptr %73, ptr %5, align 8
  br label %74

74:                                               ; preds = %65, %59, %54
  %75 = load ptr, ptr %5, align 8
  %76 = icmp ne ptr %75, null
  %77 = zext i1 %76 to i32
  call void @llvm.lifetime.end.p0(i64 4, ptr %6) #6
  call void @llvm.lifetime.end.p0(i64 8, ptr %5) #6
  ret i32 %77
}

; Function Attrs: null_pointer_is_valid sspstrong uwtable
define internal void @dissect_u3v_write_mem_cmd(ptr noundef %0, ptr noundef %1, ptr noundef %2, i32 noundef %3, i32 noundef %4, ptr noundef %5, ptr noundef %6) #0 {
  %8 = alloca ptr, align 8
  %9 = alloca ptr, align 8
  %10 = alloca ptr, align 8
  %11 = alloca i32, align 4
  %12 = alloca i32, align 4
  %13 = alloca ptr, align 8
  %14 = alloca ptr, align 8
  %15 = alloca ptr, align 8
  %16 = alloca i8, align 1
  %17 = alloca i64, align 8
  %18 = alloca i32, align 4
  %19 = alloca ptr, align 8
  %20 = alloca i32, align 4
  store ptr %0, ptr %8, align 8
  store ptr %1, ptr %9, align 8
  store ptr %2, ptr %10, align 8
  store i32 %3, ptr %11, align 4
  store i32 %4, ptr %12, align 4
  store ptr %5, ptr %13, align 8
  store ptr %6, ptr %14, align 8
  call void @llvm.lifetime.start.p0(i64 8, ptr %15) #6
  store ptr null, ptr %15, align 8
  call void @llvm.lifetime.start.p0(i64 1, ptr %16) #6
  store i8 0, ptr %16, align 1
  call void @llvm.lifetime.start.p0(i64 8, ptr %17) #6
  store i64 0, ptr %17, align 8
  call void @llvm.lifetime.start.p0(i64 4, ptr %18) #6
  store i32 0, ptr %18, align 4
  call void @llvm.lifetime.start.p0(i64 8, ptr %19) #6
  store ptr null, ptr %19, align 8
  call void @llvm.lifetime.start.p0(i64 4, ptr %20) #6
  %21 = load i32, ptr %11, align 4
  %22 = add i32 %21, 8
  store i32 %22, ptr %20, align 4
  %23 = load ptr, ptr %9, align 8
  %24 = load i32, ptr %11, align 4
  %25 = call i64 @tvb_get_letoh64(ptr noundef %23, i32 noundef %24)
  store i64 %25, ptr %17, align 8
  %26 = load i32, ptr %12, align 4
  %27 = sub i32 %26, 8
  store i32 %27, ptr %18, align 4
  %28 = load i64, ptr %17, align 8
  %29 = load ptr, ptr %13, align 8
  %30 = call ptr @get_register_name_from_address(i64 noundef %28, ptr noundef %16, ptr noundef %29)
  store ptr %30, ptr %15, align 8
  %31 = load i64, ptr %17, align 8
  %32 = load ptr, ptr %14, align 8
  %33 = getelementptr inbounds nuw %struct._gencp_transaction_t, ptr %32, i32 0, i32 4
  store i64 %31, ptr %33, align 8
  %34 = load i32, ptr %18, align 4
  %35 = load ptr, ptr %14, align 8
  %36 = getelementptr inbounds nuw %struct._gencp_transaction_t, ptr %35, i32 0, i32 5
  store i32 %34, ptr %36, align 8
  %37 = load ptr, ptr %10, align 8
  %38 = getelementptr inbounds nuw %struct._packet_info, ptr %37, i32 0, i32 1
  %39 = load ptr, ptr %38, align 8
  %40 = load ptr, ptr %15, align 8
  %41 = load i32, ptr %18, align 4
  call void (ptr, i32, ptr, ...) @col_append_fstr(ptr noundef %39, i32 noundef 25, ptr noundef @.str.683, ptr noundef %40, i32 noundef %41)
  %42 = load ptr, ptr %8, align 8
  %43 = load i32, ptr @hf_u3v_scd_writemem_cmd, align 4
  %44 = load ptr, ptr %9, align 8
  %45 = load i32, ptr %11, align 4
  %46 = load i32, ptr %12, align 4
  %47 = call ptr @proto_tree_add_item(ptr noundef %42, i32 noundef %43, ptr noundef %44, i32 noundef %45, i32 noundef %46, i32 noundef 0)
  store ptr %47, ptr %19, align 8
  %48 = load ptr, ptr %19, align 8
  %49 = load i32, ptr @ett_u3v_payload_cmd, align 4
  %50 = call ptr @proto_item_add_subtree(ptr noundef %48, i32 noundef %49)
  store ptr %50, ptr %8, align 8
  %51 = load i64, ptr %17, align 8
  %52 = load ptr, ptr %13, align 8
  %53 = call i32 @is_known_bootstrap_register(i64 noundef %51, ptr noundef %52)
  %54 = icmp ne i32 %53, 0
  br i1 %54, label %55, label %71

55:                                               ; preds = %7
  %56 = load ptr, ptr %8, align 8
  %57 = load i32, ptr @hf_u3v_address, align 4
  %58 = load ptr, ptr %9, align 8
  %59 = load i32, ptr %11, align 4
  %60 = load i64, ptr %17, align 8
  %61 = call ptr @proto_tree_add_uint64(ptr noundef %56, i32 noundef %57, ptr noundef %58, i32 noundef %59, i32 noundef 8, i64 noundef %60)
  store ptr %61, ptr %19, align 8
  %62 = load ptr, ptr %19, align 8
  %63 = load ptr, ptr %15, align 8
  call void (ptr, ptr, ...) @proto_item_append_text(ptr noundef %62, ptr noundef @.str.630, ptr noundef %63)
  %64 = load i64, ptr %17, align 8
  %65 = load ptr, ptr %8, align 8
  %66 = load ptr, ptr %9, align 8
  %67 = load i32, ptr %20, align 4
  %68 = load i32, ptr %18, align 4
  %69 = load ptr, ptr %13, align 8
  %70 = call i32 @dissect_u3v_register(i64 noundef %64, ptr noundef %65, ptr noundef %66, i32 noundef %67, i32 noundef %68, ptr noundef %69)
  br label %84

71:                                               ; preds = %7
  %72 = load ptr, ptr %8, align 8
  %73 = load i32, ptr @hf_u3v_custom_memory_addr, align 4
  %74 = load ptr, ptr %9, align 8
  %75 = load i32, ptr %11, align 4
  %76 = call ptr @proto_tree_add_item(ptr noundef %72, i32 noundef %73, ptr noundef %74, i32 noundef %75, i32 noundef 8, i32 noundef -2147483648)
  %77 = load ptr, ptr %8, align 8
  %78 = load i32, ptr @hf_u3v_custom_memory_data, align 4
  %79 = load ptr, ptr %9, align 8
  %80 = load i32, ptr %11, align 4
  %81 = add i32 %80, 8
  %82 = load i32, ptr %18, align 4
  %83 = call ptr @proto_tree_add_item(ptr noundef %77, i32 noundef %78, ptr noundef %79, i32 noundef %81, i32 noundef %82, i32 noundef 0)
  br label %84

84:                                               ; preds = %71, %55
  call void @llvm.lifetime.end.p0(i64 4, ptr %20) #6
  call void @llvm.lifetime.end.p0(i64 8, ptr %19) #6
  call void @llvm.lifetime.end.p0(i64 4, ptr %18) #6
  call void @llvm.lifetime.end.p0(i64 8, ptr %17) #6
  call void @llvm.lifetime.end.p0(i64 1, ptr %16) #6
  call void @llvm.lifetime.end.p0(i64 8, ptr %15) #6
  ret void
}