; Function Attrs: null_pointer_is_valid sspstrong uwtable
define internal fastcc void @dissect_u3v_write_mem_cmd(ptr noundef %0, ptr noundef %1, ptr noundef readonly captures(none) %2, i32 noundef range(i32 0, 65536) %3, ptr noundef captures(address_is_null) %4, ptr noundef writeonly captures(none) initializes((32, 44)) %5) unnamed_addr #0 {
  %7 = alloca i8, align 1
  call void @llvm.lifetime.start.p0(i64 1, ptr nonnull %7) #7
  store i8 0, ptr %7, align 1
  %8 = tail call i64 @tvb_get_letoh64(ptr noundef %1, i32 noundef 12)
  %9 = add nsw i32 %3, -8
  %10 = call fastcc ptr @get_register_name_from_address(i64 noundef %8, ptr noundef nonnull %7, ptr noundef %4)
  %11 = getelementptr inbounds nuw i8, ptr %5, i64 32
  store i64 %8, ptr %11, align 8
  %12 = getelementptr inbounds nuw i8, ptr %5, i64 40
  store i32 %9, ptr %12, align 8
  %13 = getelementptr inbounds nuw i8, ptr %2, i64 8
  %14 = load ptr, ptr %13, align 8
  call void (ptr, i32, ptr, ...) @col_append_fstr(ptr noundef %14, i32 noundef 25, ptr noundef nonnull @.str.683, ptr noundef %10, i32 noundef %9)
  %15 = load i32, ptr @hf_u3v_scd_writemem_cmd, align 4
  %16 = call ptr @proto_tree_add_item(ptr noundef %0, i32 noundef %15, ptr noundef %1, i32 noundef 12, i32 noundef %3, i32 noundef 0)
  %17 = load i32, ptr @ett_u3v_payload_cmd, align 4
  %18 = call ptr @proto_item_add_subtree(ptr noundef %16, i32 noundef %17)
  %19 = icmp ult i64 %8, 65536
  br i1 %19, label %20, label %23

20:                                               ; preds = %6
  %21 = trunc nuw nsw i64 %8 to i32
  %22 = call ptr @try_val_to_str(i32 noundef %21, ptr noundef nonnull @bootstrap_register_names_abrm)
  br label %23

23:                                               ; preds = %20, %6
  %.0.i = phi ptr [ %22, %20 ], [ null, %6 ]
  %24 = getelementptr inbounds nuw i8, ptr %4, i64 8
  %25 = load i64, ptr %24, align 8
  %26 = add i64 %25, -1
  %or.cond.not.i = icmp ult i64 %26, %8
  br i1 %or.cond.not.i, label %27, label %31

27:                                               ; preds = %23
  %28 = sub nuw i64 %8, %25
  %29 = trunc i64 %28 to i32
  %30 = call ptr @try_val_to_str(i32 noundef %29, ptr noundef nonnull @bootstrap_register_names_sbrm)
  br label %31

31:                                               ; preds = %27, %23
  %.1.i = phi ptr [ %30, %27 ], [ %.0.i, %23 ]
  %32 = getelementptr inbounds nuw i8, ptr %4, i64 16
  %33 = load i64, ptr %32, align 8
  %34 = add i64 %33, -1
  %or.cond33.not.i = icmp ult i64 %34, %8
  br i1 %or.cond33.not.i, label %35, label %39

35:                                               ; preds = %31
  %36 = sub nuw i64 %8, %33
  %37 = trunc i64 %36 to i32
  %38 = call ptr @try_val_to_str(i32 noundef %37, ptr noundef nonnull @bootstrap_register_names_sirm)
  br label %39

39:                                               ; preds = %35, %31
  %.2.i = phi ptr [ %38, %35 ], [ %.1.i, %31 ]
  %40 = getelementptr inbounds nuw i8, ptr %4, i64 24
  %41 = load i64, ptr %40, align 8
  %42 = add i64 %41, -1
  %or.cond34.not.i = icmp ult i64 %42, %8
  br i1 %or.cond34.not.i, label %43, label %is_known_bootstrap_register.exit

43:                                               ; preds = %39
  %44 = sub nuw i64 %8, %41
  %45 = trunc i64 %44 to i32
  %46 = call ptr @try_val_to_str(i32 noundef %45, ptr noundef nonnull @bootstrap_register_names_eirm)
  br label %is_known_bootstrap_register.exit

is_known_bootstrap_register.exit:                 ; preds = %39, %43
  %.3.i = phi ptr [ %46, %43 ], [ %.2.i, %39 ]
  %.not38 = icmp eq ptr %.3.i, null
  br i1 %.not38, label %50, label %47

47:                                               ; preds = %is_known_bootstrap_register.exit
  %48 = load i32, ptr @hf_u3v_address, align 4
  %49 = call ptr @proto_tree_add_uint64(ptr noundef %18, i32 noundef %48, ptr noundef %1, i32 noundef 12, i32 noundef 8, i64 noundef %8)
  call void (ptr, ptr, ...) @proto_item_append_text(ptr noundef %49, ptr noundef nonnull @.str.630, ptr noundef %10)
  call fastcc void @dissect_u3v_register(i64 noundef %8, ptr noundef %18, ptr noundef %1, i32 noundef 20, i32 noundef %9, ptr noundef %4)
  br label %55

50:                                               ; preds = %is_known_bootstrap_register.exit
  %51 = load i32, ptr @hf_u3v_custom_memory_addr, align 4
  %52 = call ptr @proto_tree_add_item(ptr noundef %18, i32 noundef %51, ptr noundef %1, i32 noundef 12, i32 noundef 8, i32 noundef -2147483648)
  %53 = load i32, ptr @hf_u3v_custom_memory_data, align 4
  %54 = call ptr @proto_tree_add_item(ptr noundef %18, i32 noundef %53, ptr noundef %1, i32 noundef 20, i32 noundef %9, i32 noundef 0)
  br label %55

55:                                               ; preds = %50, %47
  call void @llvm.lifetime.end.p0(i64 1, ptr nonnull %7) #7
  ret void
}